target datalayout = "e-m:e-p270:32:32-p271:32:32-p272:64:64-i64:64-i128:128-f80:128-n8:16:32:64-S128"
target triple = "x86_64-pc-linux-gnu"

%struct.AF_StyleClassRec_ = type { i32, i32, i32, i32, i32 }
%struct.FT_Matrix_ = type { i64, i64, i64, i64 }
%struct.FT_FaceRec_ = type { i64, i64, i64, i64, i64, ptr, ptr, i32, ptr, i32, ptr, %struct.FT_Generic_, %struct.FT_BBox_, i16, i16, i16, i16, i16, i16, i16, i16, ptr, ptr, ptr, ptr, ptr, ptr, %struct.FT_ListRec_, %struct.FT_Generic_, ptr, ptr }
%struct.FT_BBox_ = type { i64, i64, i64, i64 }
%struct.FT_ListRec_ = type { ptr, ptr }
%struct.FT_Generic_ = type { ptr, ptr }
%struct.AF_StyleMetricsRec_ = type { ptr, %struct.AF_ScalerRec_, i8, ptr }
%struct.AF_ScalerRec_ = type { ptr, i64, i64, i64, i64, i32, i32 }
%struct.AF_FaceGlobalsRec_ = type { ptr, i32, ptr, ptr, ptr, i32, [87 x ptr], i16, i64, i64, i64, i64, i64, ptr }
%struct.AF_LoaderRec_ = type { ptr, ptr, ptr, ptr, i8, %struct.FT_Matrix_, %struct.FT_Vector_, %struct.FT_Vector_, %struct.FT_Vector_ }
%struct.FT_Vector_ = type { i64, i64 }
%struct.FT_GlyphSlotRec_ = type { ptr, ptr, ptr, i32, %struct.FT_Generic_, %struct.FT_Glyph_Metrics_, i64, i64, %struct.FT_Vector_, i32, %struct.FT_Bitmap_, i32, i32, %struct.FT_Outline_, i32, ptr, ptr, i64, i64, i64, ptr, ptr }
%struct.FT_Glyph_Metrics_ = type { i64, i64, i64, i64, i64, i64, i64, i64 }
%struct.FT_Bitmap_ = type { i32, i32, i32, ptr, i16, i8, i8, ptr }
%struct.FT_Outline_ = type { i16, i16, ptr, ptr, ptr, i32 }
%struct.FT_SizeRec_ = type { ptr, %struct.FT_Generic_, %struct.FT_Size_Metrics_, ptr }
%struct.FT_Size_Metrics_ = type { i16, i16, i64, i64, i64, i64, i64, i64 }
%struct.FT_Size_InternalRec_ = type { ptr, i32, %struct.FT_Size_Metrics_ }
%struct.AF_WritingSystemClassRec_ = type { i32, i64, ptr, ptr, ptr, ptr, ptr, ptr }

@af_writing_system_classes = hidden constant [5 x ptr] [ptr @af_dummy_writing_system_class, ptr @af_latin_writing_system_class, ptr @af_cjk_writing_system_class, ptr @af_indic_writing_system_class, ptr null], align 16
@__const.af_loader_embolden_glyph_in_slot.scale_down_matrix = private unnamed_addr constant %struct.FT_Matrix_ { i64 65536, i64 0, i64 0, i64 65536 }, align 8

; Function Attrs: inlinehint nounwind uwtable
define internal i32 @FT_MulFix_x86_64(i32 noundef %0, i32 noundef %1) #4 {
  %3 = alloca i32, align 4
  %4 = alloca i32, align 4
  %5 = alloca i64, align 8
  %6 = alloca i64, align 8
  store i32 %0, ptr %3, align 4, !tbaa !43
  store i32 %1, ptr %4, align 4, !tbaa !43
  call void @llvm.lifetime.start.p0(i64 8, ptr %5) #10
  call void @llvm.lifetime.start.p0(i64 8, ptr %6) #10
  %7 = load i32, ptr %3, align 4, !tbaa !43
  %8 = sext i32 %7 to i64
  %9 = load i32, ptr %4, align 4, !tbaa !43
  %10 = sext i32 %9 to i64
  %11 = mul nsw i64 %8, %10
  store i64 %11, ptr %5, align 8, !tbaa !303
  %12 = load i64, ptr %5, align 8, !tbaa !303
  %13 = ashr i64 %12, 63
  store i64 %13, ptr %6, align 8, !tbaa !303
  %14 = load i64, ptr %6, align 8, !tbaa !303
  %15 = add nsw i64 32768, %14
  %16 = load i64, ptr %5, align 8, !tbaa !303
  %17 = add nsw i64 %16, %15
  store i64 %17, ptr %5, align 8, !tbaa !303
  %18 = load i64, ptr %5, align 8, !tbaa !303
  %19 = ashr i64 %18, 16
  %20 = trunc i64 %19 to i32
  call void @llvm.lifetime.end.p0(i64 8, ptr %6) #10
  call void @llvm.lifetime.end.p0(i64 8, ptr %5) #10
  ret i32 %20
}

; Function Attrs: nounwind uwtable
define internal i32 @af_loader_embolden_glyph_in_slot(ptr noundef %0, ptr noundef %1, ptr noundef %2) #0 {
  %4 = alloca ptr, align 8
  %5 = alloca ptr, align 8
  %6 = alloca ptr, align 8
  %7 = alloca i32, align 4
  %8 = alloca ptr, align 8
  %9 = alloca ptr, align 8
  %10 = alloca ptr, align 8
  %11 = alloca ptr, align 8
  %12 = alloca i64, align 8
  %13 = alloca i64, align 8
  %14 = alloca i8, align 1
  %15 = alloca i64, align 8
  %16 = alloca %struct.FT_Matrix_, align 8
  %17 = alloca i64, align 8
  %18 = alloca i64, align 8
  %19 = alloca i64, align 8
  %20 = alloca i64, align 8
  store ptr %0, ptr %4, align 8, !tbaa !459
  store ptr %1, ptr %5, align 8, !tbaa !8
  store ptr %2, ptr %6, align 8, !tbaa !3
  call void @llvm.lifetime.start.p0(i64 4, ptr %7) #10
  store i32 0, ptr %7, align 4, !tbaa !43
  call void @llvm.lifetime.start.p0(i64 8, ptr %8) #10
  %21 = load ptr, ptr %5, align 8, !tbaa !8
  %22 = getelementptr inbounds nuw %struct.FT_FaceRec_, ptr %21, i32 0, i32 21
  %23 = load ptr, ptr %22, align 8, !tbaa !184
  store ptr %23, ptr %8, align 8, !tbaa !100
  call void @llvm.lifetime.start.p0(i64 8, ptr %9) #10
  %24 = load ptr, ptr %4, align 8, !tbaa !459
  %25 = getelementptr inbounds nuw %struct.AF_LoaderRec_, ptr %24, i32 0, i32 1
  %26 = load ptr, ptr %25, align 8, !tbaa !477
  store ptr %26, ptr %9, align 8, !tbaa !124
  call void @llvm.lifetime.start.p0(i64 8, ptr %10) #10
  call void @llvm.lifetime.start.p0(i64 8, ptr %11) #10
  %27 = load ptr, ptr %5, align 8, !tbaa !8
  %28 = getelementptr inbounds nuw %struct.FT_FaceRec_, ptr %27, i32 0, i32 22
  %29 = load ptr, ptr %28, align 8, !tbaa !421
  %30 = getelementptr inbounds nuw %struct.FT_SizeRec_, ptr %29, i32 0, i32 3
  %31 = load ptr, ptr %30, align 8, !tbaa !464
  %32 = getelementptr inbounds nuw %struct.FT_Size_InternalRec_, ptr %31, i32 0, i32 2
  store ptr %32, ptr %11, align 8, !tbaa !526
  call void @llvm.lifetime.start.p0(i64 8, ptr %12) #10
  store i64 0, ptr %12, align 8, !tbaa !42
  call void @llvm.lifetime.start.p0(i64 8, ptr %13) #10
  store i64 0, ptr %13, align 8, !tbaa !42
  call void @llvm.lifetime.start.p0(i64 1, ptr %14) #10
  %33 = load ptr, ptr %11, align 8, !tbaa !526
  %34 = getelementptr inbounds nuw %struct.FT_Size_Metrics_, ptr %33, i32 0, i32 0
  %35 = load i16, ptr %34, align 8, !tbaa !528
  %36 = zext i16 %35 to i32
  %37 = load ptr, ptr %9, align 8, !tbaa !124
  %38 = getelementptr inbounds nuw %struct.AF_FaceGlobalsRec_, ptr %37, i32 0, i32 7
  %39 = load i16, ptr %38, align 8, !tbaa !529
  %40 = zext i16 %39 to i32
  %41 = icmp ne i32 %36, %40
  %42 = zext i1 %41 to i32
  %43 = trunc i32 %42 to i8
  store i8 %43, ptr %14, align 1, !tbaa !127
  call void @llvm.lifetime.start.p0(i64 8, ptr %15) #10
  %44 = load ptr, ptr %5, align 8, !tbaa !8
  %45 = getelementptr inbounds nuw %struct.FT_FaceRec_, ptr %44, i32 0, i32 13
  %46 = load i16, ptr %45, align 8, !tbaa !32
  %47 = zext i16 %46 to i32
  %48 = shl i32 %47, 16
  %49 = zext i32 %48 to i64
  store i64 %49, ptr %15, align 8, !tbaa !42
  call void @llvm.lifetime.start.p0(i64 32, ptr %16) #10
  call void @llvm.memcpy.p0.p0.i64(ptr align 8 %16, ptr align 8 @__const.af_loader_embolden_glyph_in_slot.scale_down_matrix, i64 32, i1 false)
  %50 = load ptr, ptr %5, align 8, !tbaa !8
  %51 = getelementptr inbounds nuw %struct.FT_FaceRec_, ptr %50, i32 0, i32 13
  %52 = load i16, ptr %51, align 8, !tbaa !32
  %53 = icmp ne i16 %52, 0
  br i1 %53, label %55, label %54

54:                                               ; preds = %3
  store i32 185, ptr %7, align 4, !tbaa !43
  br label %182

55:                                               ; preds = %3
  %56 = load ptr, ptr %6, align 8, !tbaa !3
  %57 = getelementptr inbounds nuw %struct.AF_StyleMetricsRec_, ptr %56, i32 0, i32 0
  %58 = load ptr, ptr %57, align 8, !tbaa !156
  %59 = getelementptr inbounds nuw %struct.AF_StyleClassRec_, ptr %58, i32 0, i32 1
  %60 = load i32, ptr %59, align 4, !tbaa !478
  %61 = zext i32 %60 to i64
  %62 = getelementptr inbounds nuw [5 x ptr], ptr @af_writing_system_classes, i64 0, i64 %61
  %63 = load ptr, ptr %62, align 8, !tbaa !479
  store ptr %63, ptr %10, align 8, !tbaa !479
  %64 = load ptr, ptr %10, align 8, !tbaa !479
  %65 = getelementptr inbounds nuw %struct.AF_WritingSystemClassRec_, ptr %64, i32 0, i32 5
  %66 = load ptr, ptr %65, align 8, !tbaa !530
  %67 = icmp ne ptr %66, null
  br i1 %67, label %68, label %73

68:                                               ; preds = %55
  %69 = load ptr, ptr %10, align 8, !tbaa !479
  %70 = getelementptr inbounds nuw %struct.AF_WritingSystemClassRec_, ptr %69, i32 0, i32 5
  %71 = load ptr, ptr %70, align 8, !tbaa !530
  %72 = load ptr, ptr %6, align 8, !tbaa !3
  call void %71(ptr noundef %72, ptr noundef %13, ptr noundef %12)
  br label %74

73:                                               ; preds = %55
  store i32 7, ptr %7, align 4, !tbaa !43
  br label %182

74:                                               ; preds = %68
  %75 = load i8, ptr %14, align 1, !tbaa !127
  %76 = zext i8 %75 to i32
  %77 = icmp ne i32 %76, 0
  br i1 %77, label %87, label %78

78:                                               ; preds = %74
  %79 = load i64, ptr %12, align 8, !tbaa !42
  %80 = icmp sgt i64 %79, 0
  br i1 %80, label %81, label %116

81:                                               ; preds = %78
  %82 = load i64, ptr %12, align 8, !tbaa !42
  %83 = load ptr, ptr %9, align 8, !tbaa !124
  %84 = getelementptr inbounds nuw %struct.AF_FaceGlobalsRec_, ptr %83, i32 0, i32 8
  %85 = load i64, ptr %84, align 8, !tbaa !531
  %86 = icmp ne i64 %82, %85
  br i1 %86, label %87, label %116

87:                                               ; preds = %81, %74
  call void @llvm.lifetime.start.p0(i64 8, ptr %17) #10
  call void @llvm.lifetime.start.p0(i64 8, ptr %18) #10
  %88 = load ptr, ptr %4, align 8, !tbaa !459
  %89 = load ptr, ptr %5, align 8, !tbaa !8
  %90 = load i64, ptr %12, align 8, !tbaa !42
  %91 = call i64 @af_loader_compute_darkening(ptr noundef %88, ptr noundef %89, i64 noundef %90)
  store i64 %91, ptr %17, align 8, !tbaa !42
  %92 = load i64, ptr %17, align 8, !tbaa !42
  %93 = trunc i64 %92 to i32
  %94 = load ptr, ptr %11, align 8, !tbaa !526
  %95 = getelementptr inbounds nuw %struct.FT_Size_Metrics_, ptr %94, i32 0, i32 2
  %96 = load i64, ptr %95, align 8, !tbaa !532
  %97 = trunc i64 %96 to i32
  %98 = call i32 @FT_MulFix_x86_64(i32 noundef %93, i32 noundef %97)
  %99 = sext i32 %98 to i64
  store i64 %99, ptr %18, align 8, !tbaa !42
  %100 = load i64, ptr %12, align 8, !tbaa !42
  %101 = load ptr, ptr %9, align 8, !tbaa !124
  %102 = getelementptr inbounds nuw %struct.AF_FaceGlobalsRec_, ptr %101, i32 0, i32 8
  store i64 %100, ptr %102, align 8, !tbaa !531
  %103 = load ptr, ptr %11, align 8, !tbaa !526
  %104 = getelementptr inbounds nuw %struct.FT_Size_Metrics_, ptr %103, i32 0, i32 0
  %105 = load i16, ptr %104, align 8, !tbaa !528
  %106 = load ptr, ptr %9, align 8, !tbaa !124
  %107 = getelementptr inbounds nuw %struct.AF_FaceGlobalsRec_, ptr %106, i32 0, i32 7
  store i16 %105, ptr %107, align 8, !tbaa !529
  %108 = load i64, ptr %18, align 8, !tbaa !42
  %109 = trunc i64 %108 to i32
  %110 = add i32 %109, 32768
  %111 = lshr i32 %110, 16
  %112 = trunc i32 %111 to i16
  %113 = sext i16 %112 to i64
  %114 = load ptr, ptr %9, align 8, !tbaa !124
  %115 = getelementptr inbounds nuw %struct.AF_FaceGlobalsRec_, ptr %114, i32 0, i32 10
  store i64 %113, ptr %115, align 8, !tbaa !533
  call void @llvm.lifetime.end.p0(i64 8, ptr %18) #10
  call void @llvm.lifetime.end.p0(i64 8, ptr %17) #10
  br label %116

116:                                              ; preds = %87, %81, %78
  %117 = load i8, ptr %14, align 1, !tbaa !127
  %118 = zext i8 %117 to i32
  %119 = icmp ne i32 %118, 0
  br i1 %119, label %129, label %120

120:                                              ; preds = %116
  %121 = load i64, ptr %13, align 8, !tbaa !42
  %122 = icmp sgt i64 %121, 0
  br i1 %122, label %123, label %166

123:                                              ; preds = %120
  %124 = load i64, ptr %13, align 8, !tbaa !42
  %125 = load ptr, ptr %9, align 8, !tbaa !124
  %126 = getelementptr inbounds nuw %struct.AF_FaceGlobalsRec_, ptr %125, i32 0, i32 9
  %127 = load i64, ptr %126, align 8, !tbaa !534
  %128 = icmp ne i64 %124, %127
  br i1 %128, label %129, label %166

129:                                              ; preds = %123, %116
  call void @llvm.lifetime.start.p0(i64 8, ptr %19) #10
  call void @llvm.lifetime.start.p0(i64 8, ptr %20) #10
  %130 = load ptr, ptr %4, align 8, !tbaa !459
  %131 = load ptr, ptr %5, align 8, !tbaa !8
  %132 = load i64, ptr %13, align 8, !tbaa !42
  %133 = call i64 @af_loader_compute_darkening(ptr noundef %130, ptr noundef %131, i64 noundef %132)
  store i64 %133, ptr %19, align 8, !tbaa !42
  %134 = load i64, ptr %19, align 8, !tbaa !42
  %135 = trunc i64 %134 to i32
  %136 = load ptr, ptr %11, align 8, !tbaa !526
  %137 = getelementptr inbounds nuw %struct.FT_Size_Metrics_, ptr %136, i32 0, i32 3
  %138 = load i64, ptr %137, align 8, !tbaa !535
  %139 = trunc i64 %138 to i32
  %140 = call i32 @FT_MulFix_x86_64(i32 noundef %135, i32 noundef %139)
  %141 = sext i32 %140 to i64
  store i64 %141, ptr %20, align 8, !tbaa !42
  %142 = load i64, ptr %13, align 8, !tbaa !42
  %143 = load ptr, ptr %9, align 8, !tbaa !124
  %144 = getelementptr inbounds nuw %struct.AF_FaceGlobalsRec_, ptr %143, i32 0, i32 9
  store i64 %142, ptr %144, align 8, !tbaa !534
  %145 = load ptr, ptr %11, align 8, !tbaa !526
  %146 = getelementptr inbounds nuw %struct.FT_Size_Metrics_, ptr %145, i32 0, i32 0
  %147 = load i16, ptr %146, align 8, !tbaa !528
  %148 = load ptr, ptr %9, align 8, !tbaa !124
  %149 = getelementptr inbounds nuw %struct.AF_FaceGlobalsRec_, ptr %148, i32 0, i32 7
  store i16 %147, ptr %149, align 8, !tbaa !529
  %150 = load i64, ptr %20, align 8, !tbaa !42
  %151 = trunc i64 %150 to i32
  %152 = add i32 %151, 32768
  %153 = lshr i32 %152, 16
  %154 = trunc i32 %153 to i16
  %155 = sext i16 %154 to i64
  %156 = load ptr, ptr %9, align 8, !tbaa !124
  %157 = getelementptr inbounds nuw %struct.AF_FaceGlobalsRec_, ptr %156, i32 0, i32 11
  store i64 %155, ptr %157, align 8, !tbaa !536
  %158 = load i64, ptr %15, align 8, !tbaa !42
  %159 = load i64, ptr %19, align 8, !tbaa !42
  %160 = add nsw i64 %159, 524288
  %161 = sub nsw i64 %158, %160
  %162 = load i64, ptr %15, align 8, !tbaa !42
  %163 = call i64 @FT_DivFix(i64 noundef %161, i64 noundef %162)
  %164 = load ptr, ptr %9, align 8, !tbaa !124
  %165 = getelementptr inbounds nuw %struct.AF_FaceGlobalsRec_, ptr %164, i32 0, i32 12
  store i64 %163, ptr %165, align 8, !tbaa !537
  call void @llvm.lifetime.end.p0(i64 8, ptr %20) #10
  call void @llvm.lifetime.end.p0(i64 8, ptr %19) #10
  br label %166

166:                                              ; preds = %129, %123, %120
  %167 = load ptr, ptr %8, align 8, !tbaa !100
  %168 = getelementptr inbounds nuw %struct.FT_GlyphSlotRec_, ptr %167, i32 0, i32 13
  %169 = load ptr, ptr %9, align 8, !tbaa !124
  %170 = getelementptr inbounds nuw %struct.AF_FaceGlobalsRec_, ptr %169, i32 0, i32 10
  %171 = load i64, ptr %170, align 8, !tbaa !533
  %172 = load ptr, ptr %9, align 8, !tbaa !124
  %173 = getelementptr inbounds nuw %struct.AF_FaceGlobalsRec_, ptr %172, i32 0, i32 11
  %174 = load i64, ptr %173, align 8, !tbaa !536
  %175 = call i32 @FT_Outline_EmboldenXY(ptr noundef %168, i64 noundef %171, i64 noundef %174)
  %176 = load ptr, ptr %9, align 8, !tbaa !124
  %177 = getelementptr inbounds nuw %struct.AF_FaceGlobalsRec_, ptr %176, i32 0, i32 12
  %178 = load i64, ptr %177, align 8, !tbaa !537
  %179 = getelementptr inbounds nuw %struct.FT_Matrix_, ptr %16, i32 0, i32 3
  store i64 %178, ptr %179, align 8, !tbaa !538
  %180 = load ptr, ptr %8, align 8, !tbaa !100
  %181 = getelementptr inbounds nuw %struct.FT_GlyphSlotRec_, ptr %180, i32 0, i32 13
  call void @FT_Outline_Transform(ptr noundef %181, ptr noundef %16)
  br label %182

182:                                              ; preds = %166, %73, %54
  %183 = load i32, ptr %7, align 4, !tbaa !43
  call void @llvm.lifetime.end.p0(i64 32, ptr %16) #10
  call void @llvm.lifetime.end.p0(i64 8, ptr %15) #10
  call void @llvm.lifetime.end.p0(i64 1, ptr %14) #10
  call void @llvm.lifetime.end.p0(i64 8, ptr %13) #10
  call void @llvm.lifetime.end.p0(i64 8, ptr %12) #10
  call void @llvm.lifetime.end.p0(i64 8, ptr %11) #10
  call void @llvm.lifetime.end.p0(i64 8, ptr %10) #10
  call void @llvm.lifetime.end.p0(i64 8, ptr %9) #10
  call void @llvm.lifetime.end.p0(i64 8, ptr %8) #10
  call void @llvm.lifetime.end.p0(i64 4, ptr %7) #10
  ret i32 %183
}