; Function Attrs: nounwind uwtable
define internal fastcc void @af_loader_embolden_glyph_in_slot(ptr noundef nonnull readonly captures(none) %0, ptr noundef readonly captures(none) %1, ptr noundef %2) unnamed_addr #0 {
  %4 = alloca i64, align 8
  %5 = alloca i64, align 8
  %6 = alloca %struct.FT_Matrix_, align 8
  %7 = getelementptr inbounds nuw i8, ptr %1, i64 152
  %8 = load ptr, ptr %7, align 8, !tbaa !46
  %9 = getelementptr inbounds nuw i8, ptr %0, i64 8
  %10 = load ptr, ptr %9, align 8, !tbaa !241
  %11 = getelementptr inbounds nuw i8, ptr %1, i64 160
  %12 = load ptr, ptr %11, align 8, !tbaa !223
  %13 = getelementptr inbounds nuw i8, ptr %12, i64 80
  %14 = load ptr, ptr %13, align 8, !tbaa !224
  %15 = getelementptr inbounds nuw i8, ptr %14, i64 16
  call void @llvm.lifetime.start.p0(i64 8, ptr nonnull %4) #20
  store i64 0, ptr %4, align 8, !tbaa !60
  call void @llvm.lifetime.start.p0(i64 8, ptr nonnull %5) #20
  store i64 0, ptr %5, align 8, !tbaa !60
  %16 = load i16, ptr %15, align 8, !tbaa !461
  %17 = getelementptr inbounds nuw i8, ptr %10, i64 744
  %18 = load i16, ptr %17, align 8, !tbaa !462
  %.not46 = icmp eq i16 %16, %18
  %19 = getelementptr inbounds nuw i8, ptr %1, i64 136
  %20 = load i16, ptr %19, align 8, !tbaa !25
  %21 = zext i16 %20 to i64
  %22 = shl nuw nsw i64 %21, 16
  call void @llvm.lifetime.start.p0(i64 32, ptr nonnull %6) #20
  call void @llvm.memcpy.p0.p0.i64(ptr noundef nonnull align 8 dereferenceable(32) %6, ptr noundef nonnull align 8 dereferenceable(32) @__const.af_loader_embolden_glyph_in_slot.scale_down_matrix, i64 24, i1 false)
  %.not = icmp eq i16 %20, 0
  br i1 %.not, label %95, label %23

23:                                               ; preds = %3
  %24 = load ptr, ptr %2, align 8, !tbaa !251
  %25 = getelementptr inbounds nuw i8, ptr %24, i64 4
  %26 = load i32, ptr %25, align 4, !tbaa !245
  %27 = zext i32 %26 to i64
  %28 = getelementptr inbounds nuw [5 x ptr], ptr @af_writing_system_classes, i64 0, i64 %27
  %29 = load ptr, ptr %28, align 8, !tbaa !246
  %30 = getelementptr inbounds nuw i8, ptr %29, i64 40
  %31 = load ptr, ptr %30, align 8, !tbaa !463
  %.not45 = icmp eq ptr %31, null
  br i1 %.not45, label %95, label %32

32:                                               ; preds = %23
  call void %31(ptr noundef nonnull %2, ptr noundef nonnull %5, ptr noundef nonnull %4) #20
  %.pre = load i64, ptr %4, align 8, !tbaa !60
  br i1 %.not46, label %33, label %38

33:                                               ; preds = %32
  %34 = icmp sgt i64 %.pre, 0
  br i1 %34, label %35, label %.thread

35:                                               ; preds = %33
  %36 = getelementptr inbounds nuw i8, ptr %10, i64 752
  %37 = load i64, ptr %36, align 8, !tbaa !464
  %.not47 = icmp eq i64 %.pre, %37
  br i1 %.not47, label %.thread, label %38

38:                                               ; preds = %32, %35
  %.val = load ptr, ptr %9, align 8, !tbaa !241
  %.val50 = load i16, ptr %19, align 8, !tbaa !25
  %.val51 = load ptr, ptr %11, align 8, !tbaa !223
  %39 = getelementptr i8, ptr %.val, i64 792
  %.val.val = load ptr, ptr %39, align 8, !tbaa !465
  %40 = getelementptr i8, ptr %.val51, i64 24
  %.val51.val = load i16, ptr %40, align 8, !tbaa !436
  %41 = call fastcc i64 @af_loader_compute_darkening(ptr %.val.val, i16 %.val50, i16 %.val51.val, i64 noundef %.pre)
  %42 = getelementptr inbounds nuw i8, ptr %14, i64 24
  %43 = load i64, ptr %42, align 8, !tbaa !466
  %sext55 = shl i64 %41, 32
  %44 = ashr exact i64 %sext55, 32
  %sext56 = shl i64 %43, 32
  %45 = ashr exact i64 %sext56, 32
  %46 = mul nsw i64 %45, %44
  %47 = ashr i64 %46, 63
  %48 = add nsw i64 %46, 32768
  %49 = add nsw i64 %48, %47
  %50 = load i64, ptr %4, align 8, !tbaa !60
  %51 = getelementptr inbounds nuw i8, ptr %10, i64 752
  store i64 %50, ptr %51, align 8, !tbaa !464
  %52 = load i16, ptr %15, align 8, !tbaa !461
  store i16 %52, ptr %17, align 8, !tbaa !462
  %53 = shl i64 %49, 16
  %54 = add i64 %53, 140737488355328
  %55 = ashr i64 %54, 48
  %56 = getelementptr inbounds nuw i8, ptr %10, i64 768
  store i64 %55, ptr %56, align 8, !tbaa !467
  br i1 %.not46, label %.thread, label %._crit_edge

._crit_edge:                                      ; preds = %38
  %.pre59 = load i64, ptr %5, align 8, !tbaa !60
  br label %62

.thread:                                          ; preds = %33, %35, %38
  %57 = load i64, ptr %5, align 8, !tbaa !60
  %58 = icmp sgt i64 %57, 0
  br i1 %58, label %59, label %85

59:                                               ; preds = %.thread
  %60 = getelementptr inbounds nuw i8, ptr %10, i64 760
  %61 = load i64, ptr %60, align 8, !tbaa !468
  %.not48 = icmp eq i64 %57, %61
  br i1 %.not48, label %85, label %62

62:                                               ; preds = %._crit_edge, %59
  %63 = phi i64 [ %.pre59, %._crit_edge ], [ %57, %59 ]
  %.val52 = load ptr, ptr %9, align 8, !tbaa !241
  %.val53 = load i16, ptr %19, align 8, !tbaa !25
  %.val54 = load ptr, ptr %11, align 8, !tbaa !223
  %64 = getelementptr i8, ptr %.val52, i64 792
  %.val52.val = load ptr, ptr %64, align 8, !tbaa !465
  %65 = getelementptr i8, ptr %.val54, i64 24
  %.val54.val = load i16, ptr %65, align 8, !tbaa !436
  %66 = call fastcc i64 @af_loader_compute_darkening(ptr %.val52.val, i16 %.val53, i16 %.val54.val, i64 noundef %63)
  %67 = getelementptr inbounds nuw i8, ptr %14, i64 32
  %68 = load i64, ptr %67, align 8, !tbaa !469
  %sext = shl i64 %66, 32
  %69 = ashr exact i64 %sext, 32
  %sext57 = shl i64 %68, 32
  %70 = ashr exact i64 %sext57, 32
  %71 = mul nsw i64 %70, %69
  %72 = ashr i64 %71, 63
  %73 = add nsw i64 %71, 32768
  %74 = add nsw i64 %73, %72
  %75 = load i64, ptr %5, align 8, !tbaa !60
  %76 = getelementptr inbounds nuw i8, ptr %10, i64 760
  store i64 %75, ptr %76, align 8, !tbaa !468
  %77 = load i16, ptr %15, align 8, !tbaa !461
  store i16 %77, ptr %17, align 8, !tbaa !462
  %78 = shl i64 %74, 16
  %79 = add i64 %78, 140737488355328
  %80 = ashr i64 %79, 48
  %81 = getelementptr inbounds nuw i8, ptr %10, i64 776
  store i64 %80, ptr %81, align 8, !tbaa !470
  %.neg58 = add nsw i64 %22, -524288
  %82 = sub i64 %.neg58, %66
  %83 = call i64 @FT_DivFix(i64 noundef %82, i64 noundef %22) #20
  %84 = getelementptr inbounds nuw i8, ptr %10, i64 784
  store i64 %83, ptr %84, align 8, !tbaa !471
  br label %85

85:                                               ; preds = %62, %59, %.thread
  %86 = getelementptr inbounds nuw i8, ptr %8, i64 200
  %87 = getelementptr inbounds nuw i8, ptr %10, i64 768
  %88 = load i64, ptr %87, align 8, !tbaa !467
  %89 = getelementptr inbounds nuw i8, ptr %10, i64 776
  %90 = load i64, ptr %89, align 8, !tbaa !470
  %91 = call i32 @FT_Outline_EmboldenXY(ptr noundef nonnull %86, i64 noundef %88, i64 noundef %90) #20
  %92 = getelementptr inbounds nuw i8, ptr %10, i64 784
  %93 = load i64, ptr %92, align 8, !tbaa !471
  %94 = getelementptr inbounds nuw i8, ptr %6, i64 24
  store i64 %93, ptr %94, align 8, !tbaa !472
  call void @FT_Outline_Transform(ptr noundef nonnull %86, ptr noundef nonnull %6) #20
  br label %95

95:                                               ; preds = %23, %3, %85
  call void @llvm.lifetime.end.p0(i64 32, ptr nonnull %6) #20
  call void @llvm.lifetime.end.p0(i64 8, ptr nonnull %5) #20
  call void @llvm.lifetime.end.p0(i64 8, ptr nonnull %4) #20
  ret void
}